target datalayout = "e-m:e-p270:32:32-p271:32:32-p272:64:64-i64:64-i128:128-f80:128-n8:16:32:64-S128"
target triple = "x86_64-pc-linux-gnu"

%struct._ir_ctx = type { ptr, i32, i32, i32, i32, i32, i32, i32, i32, i32, i32, %struct._ir_insn, ptr, ptr, ptr, i32, i32, i32, ptr, ptr, ptr, ptr, ptr, ptr, i32, i32, i64, i32, i32, i32, i64, i32, i32, i32, i32, ptr, ptr, ptr, ptr, ptr, ptr, %union.anon.13, ptr, i32, i32, i32, i64, i32, i32, i32, ptr, ptr, ptr, ptr, %struct._ir_strtab, [61 x i32], [14 x i32] }
%struct._ir_insn = type { %struct.anon, %union.anon.5 }
%struct.anon = type { %union.anon, %union.anon.4 }
%union.anon = type { i32 }
%union.anon.4 = type { i32 }
%union.anon.5 = type { %union._ir_val }
%union._ir_val = type { double }
%union.anon.13 = type { ptr }
%struct._ir_strtab = type { ptr, i32, i32, i32, i32, ptr, i32, i32 }
%struct.anon.0 = type { %union.anon.1, %union.anon.3 }
%union.anon.1 = type { i16 }
%union.anon.3 = type { i16 }
%struct.anon.2 = type { i8, i8 }
%struct._ir_use_list = type { i32, i32 }
%struct.anon.6 = type { i32, i32 }

; Function Attrs: nounwind uwtable
define internal zeroext i1 @ir_may_promote_i2i(ptr noundef %0, i32 noundef %1, i32 noundef %2) #0 {
  %4 = alloca i1, align 1
  %5 = alloca ptr, align 8
  %6 = alloca i32, align 4
  %7 = alloca i32, align 4
  %8 = alloca ptr, align 8
  %9 = alloca i32, align 4
  store ptr %0, ptr %5, align 8, !tbaa !4
  store i32 %1, ptr %6, align 4, !tbaa !33
  store i32 %2, ptr %7, align 4, !tbaa !33
  call void @llvm.lifetime.start.p0(i64 8, ptr %8) #10
  %10 = load ptr, ptr %5, align 8, !tbaa !4
  %11 = getelementptr inbounds nuw %struct._ir_ctx, ptr %10, i32 0, i32 0
  %12 = load ptr, ptr %11, align 8, !tbaa !45
  %13 = load i32, ptr %7, align 4, !tbaa !33
  %14 = sext i32 %13 to i64
  %15 = getelementptr inbounds %struct._ir_insn, ptr %12, i64 %14
  store ptr %15, ptr %8, align 8, !tbaa !31
  %16 = load i32, ptr %7, align 4, !tbaa !33
  %17 = icmp slt i32 %16, 0
  br i1 %17, label %18, label %48

18:                                               ; preds = %3
  %19 = load ptr, ptr %8, align 8, !tbaa !31
  %20 = getelementptr inbounds nuw %struct._ir_insn, ptr %19, i32 0, i32 0
  %21 = getelementptr inbounds nuw %struct.anon, ptr %20, i32 0, i32 0
  %22 = getelementptr inbounds nuw %struct.anon.0, ptr %21, i32 0, i32 0
  %23 = getelementptr inbounds nuw %struct.anon.2, ptr %22, i32 0, i32 0
  %24 = load i8, ptr %23, align 8, !tbaa !46
  %25 = zext i8 %24 to i32
  %26 = icmp eq i32 %25, 68
  br i1 %26, label %45, label %27

27:                                               ; preds = %18
  %28 = load ptr, ptr %8, align 8, !tbaa !31
  %29 = getelementptr inbounds nuw %struct._ir_insn, ptr %28, i32 0, i32 0
  %30 = getelementptr inbounds nuw %struct.anon, ptr %29, i32 0, i32 0
  %31 = getelementptr inbounds nuw %struct.anon.0, ptr %30, i32 0, i32 0
  %32 = getelementptr inbounds nuw %struct.anon.2, ptr %31, i32 0, i32 0
  %33 = load i8, ptr %32, align 8, !tbaa !46
  %34 = zext i8 %33 to i32
  %35 = icmp eq i32 %34, 67
  br i1 %35, label %45, label %36

36:                                               ; preds = %27
  %37 = load ptr, ptr %8, align 8, !tbaa !31
  %38 = getelementptr inbounds nuw %struct._ir_insn, ptr %37, i32 0, i32 0
  %39 = getelementptr inbounds nuw %struct.anon, ptr %38, i32 0, i32 0
  %40 = getelementptr inbounds nuw %struct.anon.0, ptr %39, i32 0, i32 0
  %41 = getelementptr inbounds nuw %struct.anon.2, ptr %40, i32 0, i32 0
  %42 = load i8, ptr %41, align 8, !tbaa !46
  %43 = zext i8 %42 to i32
  %44 = icmp eq i32 %43, 66
  br label %45

45:                                               ; preds = %36, %27, %18
  %46 = phi i1 [ true, %27 ], [ true, %18 ], [ %44, %36 ]
  %47 = xor i1 %46, true
  store i1 %47, ptr %4, align 1
  store i32 1, ptr %9, align 4
  br label %125

48:                                               ; preds = %3
  %49 = load ptr, ptr %8, align 8, !tbaa !31
  %50 = getelementptr inbounds nuw %struct._ir_insn, ptr %49, i32 0, i32 0
  %51 = getelementptr inbounds nuw %struct.anon, ptr %50, i32 0, i32 0
  %52 = getelementptr inbounds nuw %struct.anon.0, ptr %51, i32 0, i32 0
  %53 = getelementptr inbounds nuw %struct.anon.2, ptr %52, i32 0, i32 0
  %54 = load i8, ptr %53, align 8, !tbaa !46
  %55 = zext i8 %54 to i32
  switch i32 %55, label %122 [
    i32 32, label %56
    i32 31, label %56
    i32 29, label %74
    i32 30, label %74
    i32 43, label %74
    i32 24, label %94
    i32 25, label %94
    i32 26, label %94
    i32 56, label %94
    i32 57, label %94
    i32 44, label %94
    i32 45, label %94
    i32 46, label %94
  ]

56:                                               ; preds = %48, %48
  %57 = load ptr, ptr %5, align 8, !tbaa !4
  %58 = getelementptr inbounds nuw %struct._ir_ctx, ptr %57, i32 0, i32 0
  %59 = load ptr, ptr %58, align 8, !tbaa !45
  %60 = load ptr, ptr %8, align 8, !tbaa !31
  %61 = getelementptr inbounds nuw %struct._ir_insn, ptr %60, i32 0, i32 0
  %62 = getelementptr inbounds nuw %struct.anon, ptr %61, i32 0, i32 1
  %63 = load i32, ptr %62, align 4, !tbaa !46
  %64 = sext i32 %63 to i64
  %65 = getelementptr inbounds %struct._ir_insn, ptr %59, i64 %64
  %66 = getelementptr inbounds nuw %struct._ir_insn, ptr %65, i32 0, i32 0
  %67 = getelementptr inbounds nuw %struct.anon, ptr %66, i32 0, i32 0
  %68 = getelementptr inbounds nuw %struct.anon.0, ptr %67, i32 0, i32 0
  %69 = getelementptr inbounds nuw %struct.anon.2, ptr %68, i32 0, i32 1
  %70 = load i8, ptr %69, align 1, !tbaa !46
  %71 = zext i8 %70 to i32
  %72 = load i32, ptr %6, align 4, !tbaa !33
  %73 = icmp eq i32 %71, %72
  store i1 %73, ptr %4, align 1
  store i32 1, ptr %9, align 4
  br label %125

74:                                               ; preds = %48, %48, %48
  %75 = load ptr, ptr %5, align 8, !tbaa !4
  %76 = getelementptr inbounds nuw %struct._ir_ctx, ptr %75, i32 0, i32 13
  %77 = load ptr, ptr %76, align 8, !tbaa !47
  %78 = load i32, ptr %7, align 4, !tbaa !33
  %79 = sext i32 %78 to i64
  %80 = getelementptr inbounds %struct._ir_use_list, ptr %77, i64 %79
  %81 = getelementptr inbounds nuw %struct._ir_use_list, ptr %80, i32 0, i32 1
  %82 = load i32, ptr %81, align 4, !tbaa !48
  %83 = icmp eq i32 %82, 1
  br i1 %83, label %84, label %92

84:                                               ; preds = %74
  %85 = load ptr, ptr %5, align 8, !tbaa !4
  %86 = load i32, ptr %6, align 4, !tbaa !33
  %87 = load ptr, ptr %8, align 8, !tbaa !31
  %88 = getelementptr inbounds nuw %struct._ir_insn, ptr %87, i32 0, i32 0
  %89 = getelementptr inbounds nuw %struct.anon, ptr %88, i32 0, i32 1
  %90 = load i32, ptr %89, align 4, !tbaa !46
  %91 = call zeroext i1 @ir_may_promote_i2i(ptr noundef %85, i32 noundef %86, i32 noundef %90)
  br label %92

92:                                               ; preds = %84, %74
  %93 = phi i1 [ false, %74 ], [ %91, %84 ]
  store i1 %93, ptr %4, align 1
  store i32 1, ptr %9, align 4
  br label %125

94:                                               ; preds = %48, %48, %48, %48, %48, %48, %48, %48
  %95 = load ptr, ptr %5, align 8, !tbaa !4
  %96 = getelementptr inbounds nuw %struct._ir_ctx, ptr %95, i32 0, i32 13
  %97 = load ptr, ptr %96, align 8, !tbaa !47
  %98 = load i32, ptr %7, align 4, !tbaa !33
  %99 = sext i32 %98 to i64
  %100 = getelementptr inbounds %struct._ir_use_list, ptr %97, i64 %99
  %101 = getelementptr inbounds nuw %struct._ir_use_list, ptr %100, i32 0, i32 1
  %102 = load i32, ptr %101, align 4, !tbaa !48
  %103 = icmp eq i32 %102, 1
  br i1 %103, label %104, label %120

104:                                              ; preds = %94
  %105 = load ptr, ptr %5, align 8, !tbaa !4
  %106 = load i32, ptr %6, align 4, !tbaa !33
  %107 = load ptr, ptr %8, align 8, !tbaa !31
  %108 = getelementptr inbounds nuw %struct._ir_insn, ptr %107, i32 0, i32 0
  %109 = getelementptr inbounds nuw %struct.anon, ptr %108, i32 0, i32 1
  %110 = load i32, ptr %109, align 4, !tbaa !46
  %111 = call zeroext i1 @ir_may_promote_i2i(ptr noundef %105, i32 noundef %106, i32 noundef %110)
  br i1 %111, label %112, label %120

112:                                              ; preds = %104
  %113 = load ptr, ptr %5, align 8, !tbaa !4
  %114 = load i32, ptr %6, align 4, !tbaa !33
  %115 = load ptr, ptr %8, align 8, !tbaa !31
  %116 = getelementptr inbounds nuw %struct._ir_insn, ptr %115, i32 0, i32 1
  %117 = getelementptr inbounds nuw %struct.anon.6, ptr %116, i32 0, i32 0
  %118 = load i32, ptr %117, align 8, !tbaa !46
  %119 = call zeroext i1 @ir_may_promote_i2i(ptr noundef %113, i32 noundef %114, i32 noundef %118)
  br label %120

120:                                              ; preds = %112, %104, %94
  %121 = phi i1 [ false, %104 ], [ false, %94 ], [ %119, %112 ]
  store i1 %121, ptr %4, align 1
  store i32 1, ptr %9, align 4
  br label %125

122:                                              ; preds = %48
  br label %123

123:                                              ; preds = %122
  br label %124

124:                                              ; preds = %123
  store i1 false, ptr %4, align 1
  store i32 1, ptr %9, align 4
  br label %125

125:                                              ; preds = %124, %120, %92, %56, %45
  call void @llvm.lifetime.end.p0(i64 8, ptr %8) #10
  %126 = load i1, ptr %4, align 1
  ret i1 %126
}