; Function Attrs: nofree nosync nounwind memory(read, inaccessiblemem: none) uwtable
define internal fastcc zeroext i1 @ir_may_promote_i2i(ptr noundef readonly captures(none) %0, i32 noundef range(i32 0, 256) %1, i32 noundef %2) unnamed_addr #8 {
  %4 = load ptr, ptr %0, align 8, !tbaa !38
  %5 = sext i32 %2 to i64
  %6 = getelementptr inbounds %struct._ir_insn, ptr %4, i64 %5
  %7 = icmp slt i32 %2, 0
  br i1 %7, label %tailrecurse._crit_edge, label %.lr.ph

.lr.ph:                                           ; preds = %3
  %8 = getelementptr inbounds nuw i8, ptr %0, i64 72
  br label %11

tailrecurse._crit_edge:                           ; preds = %tailrecurse.backedge, %3
  %.lcssa = phi ptr [ %6, %3 ], [ %31, %tailrecurse.backedge ]
  %9 = load i8, ptr %.lcssa, align 8, !tbaa !39
  %10 = add i8 %9, -69
  %switch = icmp ult i8 %10, -3
  br label %switch.edge

11:                                               ; preds = %.lr.ph, %tailrecurse.backedge
  %12 = phi ptr [ %6, %.lr.ph ], [ %31, %tailrecurse.backedge ]
  %13 = phi i64 [ %5, %.lr.ph ], [ %30, %tailrecurse.backedge ]
  %14 = load i8, ptr %12, align 8, !tbaa !39
  switch i8 %14, label %switch.edge [
    i8 32, label %15
    i8 31, label %15
    i8 29, label %24
    i8 30, label %24
    i8 43, label %24
    i8 24, label %33
    i8 25, label %33
    i8 26, label %33
    i8 56, label %33
    i8 57, label %33
    i8 44, label %33
    i8 45, label %33
    i8 46, label %33
  ]

15:                                               ; preds = %11, %11
  %16 = getelementptr inbounds nuw i8, ptr %12, i64 4
  %17 = load i32, ptr %16, align 4, !tbaa !39
  %18 = sext i32 %17 to i64
  %19 = getelementptr inbounds %struct._ir_insn, ptr %4, i64 %18
  %20 = getelementptr inbounds nuw i8, ptr %19, i64 1
  %21 = load i8, ptr %20, align 1, !tbaa !39
  %22 = zext i8 %21 to i32
  %23 = icmp eq i32 %1, %22
  br label %switch.edge

24:                                               ; preds = %11, %11, %11
  %25 = load ptr, ptr %8, align 8, !tbaa !41
  %26 = getelementptr inbounds nuw %struct._ir_use_list, ptr %25, i64 %13, i32 1
  %27 = load i32, ptr %26, align 4, !tbaa !42
  %28 = icmp eq i32 %27, 1
  br i1 %28, label %tailrecurse.backedge, label %switch.edge

tailrecurse.backedge:                             ; preds = %24, %38
  %.sink = phi i64 [ 8, %38 ], [ 4, %24 ]
  %29 = getelementptr inbounds nuw i8, ptr %12, i64 %.sink
  %.tr25.be = load i32, ptr %29, align 4, !tbaa !39
  %30 = sext i32 %.tr25.be to i64
  %31 = getelementptr inbounds %struct._ir_insn, ptr %4, i64 %30
  %32 = icmp slt i32 %.tr25.be, 0
  br i1 %32, label %tailrecurse._crit_edge, label %11

33:                                               ; preds = %11, %11, %11, %11, %11, %11, %11, %11
  %34 = load ptr, ptr %8, align 8, !tbaa !41
  %35 = getelementptr inbounds nuw %struct._ir_use_list, ptr %34, i64 %13, i32 1
  %36 = load i32, ptr %35, align 4, !tbaa !42
  %37 = icmp eq i32 %36, 1
  br i1 %37, label %38, label %switch.edge

38:                                               ; preds = %33
  %39 = getelementptr inbounds nuw i8, ptr %12, i64 4
  %40 = load i32, ptr %39, align 4, !tbaa !39
  %41 = tail call fastcc zeroext i1 @ir_may_promote_i2i(ptr noundef nonnull %0, i32 noundef %1, i32 noundef %40)
  br i1 %41, label %tailrecurse.backedge, label %switch.edge

switch.edge:                                      ; preds = %11, %33, %38, %24, %tailrecurse._crit_edge, %15
  %.0 = phi i1 [ %23, %15 ], [ %switch, %tailrecurse._crit_edge ], [ false, %24 ], [ false, %38 ], [ false, %33 ], [ false, %11 ]
  ret i1 %.0
}